; Function Attrs: nounwind uwtable
define dso_local range(i32 -30, 1) i32 @archive_match_include_uid(ptr noundef %0, i64 noundef %1) local_unnamed_addr #0 {
  %3 = tail call i32 @__archive_check_magic(ptr noundef %0, i32 noundef 212668873, i32 noundef 1, ptr noundef nonnull @.str.25) #14
  %.not = icmp eq i32 %3, -30
  br i1 %.not, label %7, label %4

4:                                                ; preds = %2
  %5 = getelementptr inbounds nuw i8, ptr %0, i64 376
  %6 = tail call fastcc i32 @add_owner_id(ptr noundef %0, ptr noundef nonnull %5, i64 noundef %1)
  br label %7

7:                                                ; preds = %2, %4
  %.1 = phi i32 [ %6, %4 ], [ -30, %2 ]
  ret i32 %.1
}